target datalayout = "e-m:e-p270:32:32-p271:32:32-p272:64:64-i64:64-i128:128-f80:128-n8:16:32:64-S128"
target triple = "x86_64-unknown-linux-gnu"

%"class.icu_75::UObject" = type { ptr }
%"class.icu_75::UnicodeString" = type { %"class.icu_75::Replaceable", %"union.icu_75::UnicodeString::StackBufferOrFields" }
%"class.icu_75::Replaceable" = type { %"class.icu_75::UObject" }
%"union.icu_75::UnicodeString::StackBufferOrFields" = type { %struct.anon.6, [32 x i8] }
%struct.anon.6 = type { i16, i32, i32, ptr }
%"class.icu_75::number::impl::PropertiesAffixPatternProvider" = type <{ %"class.icu_75::number::impl::AffixPatternProvider", %"class.icu_75::UnicodeString", %"class.icu_75::UnicodeString", %"class.icu_75::UnicodeString", %"class.icu_75::UnicodeString", i8, i8, i8, [5 x i8] }>
%"class.icu_75::number::impl::AffixPatternProvider" = type { ptr }

; Function Attrs: mustprogress nounwind uwtable
define noundef nonnull align 8 dereferenceable(64) ptr @_ZNK6icu_756number4impl30PropertiesAffixPatternProvider17getStringInternalEi(ptr noundef nonnull align 8 dereferenceable(267) %this, i32 noundef %flags) #0 align 2 {
entry:
  %retval = alloca ptr, align 8
  %this.addr = alloca ptr, align 8
  %flags.addr = alloca i32, align 4
  %prefix = alloca i8, align 1
  %negative = alloca i8, align 1
  store ptr %this, ptr %this.addr, align 8
  store i32 %flags, ptr %flags.addr, align 4
  %this1 = load ptr, ptr %this.addr, align 8
  %0 = load i32, ptr %flags.addr, align 4
  %and = and i32 %0, 256
  %cmp = icmp ne i32 %and, 0
  %frombool = zext i1 %cmp to i8
  store i8 %frombool, ptr %prefix, align 1
  %1 = load i32, ptr %flags.addr, align 4
  %and2 = and i32 %1, 512
  %cmp3 = icmp ne i32 %and2, 0
  %frombool4 = zext i1 %cmp3 to i8
  store i8 %frombool4, ptr %negative, align 1
  %2 = load i8, ptr %prefix, align 1
  %tobool = trunc i8 %2 to i1
  br i1 %tobool, label %land.lhs.true, label %if.else

land.lhs.true:                                    ; preds = %entry
  %3 = load i8, ptr %negative, align 1
  %tobool5 = trunc i8 %3 to i1
  br i1 %tobool5, label %if.then, label %if.else

if.then:                                          ; preds = %land.lhs.true
  %negPrefix = getelementptr inbounds %"class.icu_75::number::impl::PropertiesAffixPatternProvider", ptr %this1, i32 0, i32 3
  store ptr %negPrefix, ptr %retval, align 8
  br label %return

if.else:                                          ; preds = %land.lhs.true, %entry
  %4 = load i8, ptr %prefix, align 1
  %tobool6 = trunc i8 %4 to i1
  br i1 %tobool6, label %if.then7, label %if.else8

if.then7:                                         ; preds = %if.else
  %posPrefix = getelementptr inbounds %"class.icu_75::number::impl::PropertiesAffixPatternProvider", ptr %this1, i32 0, i32 1
  store ptr %posPrefix, ptr %retval, align 8
  br label %return

if.else8:                                         ; preds = %if.else
  %5 = load i8, ptr %negative, align 1
  %tobool9 = trunc i8 %5 to i1
  br i1 %tobool9, label %if.then10, label %if.else11

if.then10:                                        ; preds = %if.else8
  %negSuffix = getelementptr inbounds %"class.icu_75::number::impl::PropertiesAffixPatternProvider", ptr %this1, i32 0, i32 4
  store ptr %negSuffix, ptr %retval, align 8
  br label %return

if.else11:                                        ; preds = %if.else8
  %posSuffix = getelementptr inbounds %"class.icu_75::number::impl::PropertiesAffixPatternProvider", ptr %this1, i32 0, i32 2
  store ptr %posSuffix, ptr %retval, align 8
  br label %return

return:                                           ; preds = %if.else11, %if.then10, %if.then7, %if.then
  %6 = load ptr, ptr %retval, align 8
  ret ptr %6
}

; Function Attrs: mustprogress uwtable
define void @_ZNK6icu_756number4impl30PropertiesAffixPatternProvider9getStringEi(ptr noalias sret(%"class.icu_75::UnicodeString") align 8 %agg.result, ptr noundef nonnull align 8 dereferenceable(267) %this, i32 noundef %flags) unnamed_addr #1 align 2 {
entry:
  %result.ptr = alloca ptr, align 8
  %this.addr = alloca ptr, align 8
  %flags.addr = alloca i32, align 4
  store ptr %agg.result, ptr %result.ptr, align 8
  store ptr %this, ptr %this.addr, align 8
  store i32 %flags, ptr %flags.addr, align 4
  %this1 = load ptr, ptr %this.addr, align 8
  %0 = load i32, ptr %flags.addr, align 4
  %call = call noundef nonnull align 8 dereferenceable(64) ptr @_ZNK6icu_756number4impl30PropertiesAffixPatternProvider17getStringInternalEi(ptr noundef nonnull align 8 dereferenceable(267) %this1, i32 noundef %0)
  call void @_ZN6icu_7513UnicodeStringC1ERKS0_(ptr noundef nonnull align 8 dereferenceable(64) %agg.result, ptr noundef nonnull align 8 dereferenceable(64) %call)
  ret void
}