; Function Attrs: mustprogress uwtable
define void @_ZNK6icu_756number4impl30PropertiesAffixPatternProvider9getStringEi(ptr noalias nonnull sret(%"class.icu_75::UnicodeString") align 8 %agg.result, ptr noundef nonnull align 8 dereferenceable(267) %this, i32 noundef %flags) unnamed_addr #1 align 2 {
entry:
  %and2.i = and i32 %flags, 512
  %cmp3.not.i = icmp eq i32 %and2.i, 0
  %0 = and i32 %flags, 768
  %brmerge.not.i = icmp eq i32 %0, 768
  %and.i = and i32 %flags, 256
  %cmp.not.i = icmp eq i32 %and.i, 0
  %..i = select i1 %cmp3.not.i, i64 72, i64 200
  %spec.select.i = select i1 %cmp.not.i, i64 %..i, i64 8
  %.sink.i = select i1 %brmerge.not.i, i64 136, i64 %spec.select.i
  %posSuffix.i = getelementptr inbounds i8, ptr %this, i64 %.sink.i
  tail call void @_ZN6icu_7513UnicodeStringC1ERKS0_(ptr noundef nonnull align 8 dereferenceable(64) %agg.result, ptr noundef nonnull align 8 dereferenceable(64) %posSuffix.i)
  ret void
}